target datalayout = "e-m:e-p270:32:32-p271:32:32-p272:64:64-i64:64-i128:128-f80:128-n8:16:32:64-S128"
target triple = "x86_64-unknown-linux-gnu"

%class.btGenericMemoryPool = type { ptr, ptr, ptr, i64, i64, i64, i64 }

; Function Attrs: mustprogress uwtable
define dso_local void @_ZN19btGenericMemoryPool9init_poolEmm(ptr noundef nonnull align 8 dereferenceable(56) %this, i64 noundef %element_size, i64 noundef %element_count) #2 align 2 {
entry:
  %this.addr = alloca ptr, align 8
  %element_size.addr = alloca i64, align 8
  %element_count.addr = alloca i64, align 8
  %i = alloca i64, align 8
  store ptr %this, ptr %this.addr, align 8
  store i64 %element_size, ptr %element_size.addr, align 8
  store i64 %element_count, ptr %element_count.addr, align 8
  %this1 = load ptr, ptr %this.addr, align 8
  %m_allocated_count = getelementptr inbounds %class.btGenericMemoryPool, ptr %this1, i32 0, i32 3
  store i64 0, ptr %m_allocated_count, align 8
  %m_free_nodes_count = getelementptr inbounds %class.btGenericMemoryPool, ptr %this1, i32 0, i32 4
  store i64 0, ptr %m_free_nodes_count, align 8
  %0 = load i64, ptr %element_size.addr, align 8
  %m_element_size = getelementptr inbounds %class.btGenericMemoryPool, ptr %this1, i32 0, i32 5
  store i64 %0, ptr %m_element_size, align 8
  %1 = load i64, ptr %element_count.addr, align 8
  %m_max_element_count = getelementptr inbounds %class.btGenericMemoryPool, ptr %this1, i32 0, i32 6
  store i64 %1, ptr %m_max_element_count, align 8
  %m_element_size2 = getelementptr inbounds %class.btGenericMemoryPool, ptr %this1, i32 0, i32 5
  %2 = load i64, ptr %m_element_size2, align 8
  %m_max_element_count3 = getelementptr inbounds %class.btGenericMemoryPool, ptr %this1, i32 0, i32 6
  %3 = load i64, ptr %m_max_element_count3, align 8
  %mul = mul i64 %2, %3
  %call = call noundef ptr @_Z22btAlignedAllocInternalmi(i64 noundef %mul, i32 noundef 16)
  %m_pool = getelementptr inbounds %class.btGenericMemoryPool, ptr %this1, i32 0, i32 0
  store ptr %call, ptr %m_pool, align 8
  %m_max_element_count4 = getelementptr inbounds %class.btGenericMemoryPool, ptr %this1, i32 0, i32 6
  %4 = load i64, ptr %m_max_element_count4, align 8
  %mul5 = mul i64 8, %4
  %call6 = call noundef ptr @_Z22btAlignedAllocInternalmi(i64 noundef %mul5, i32 noundef 16)
  %m_free_nodes = getelementptr inbounds %class.btGenericMemoryPool, ptr %this1, i32 0, i32 1
  store ptr %call6, ptr %m_free_nodes, align 8
  %m_max_element_count7 = getelementptr inbounds %class.btGenericMemoryPool, ptr %this1, i32 0, i32 6
  %5 = load i64, ptr %m_max_element_count7, align 8
  %mul8 = mul i64 8, %5
  %call9 = call noundef ptr @_Z22btAlignedAllocInternalmi(i64 noundef %mul8, i32 noundef 16)
  %m_allocated_sizes = getelementptr inbounds %class.btGenericMemoryPool, ptr %this1, i32 0, i32 2
  store ptr %call9, ptr %m_allocated_sizes, align 8
  store i64 0, ptr %i, align 8
  br label %for.cond

for.cond:                                         ; preds = %for.inc, %entry
  %6 = load i64, ptr %i, align 8
  %m_max_element_count10 = getelementptr inbounds %class.btGenericMemoryPool, ptr %this1, i32 0, i32 6
  %7 = load i64, ptr %m_max_element_count10, align 8
  %cmp = icmp ult i64 %6, %7
  br i1 %cmp, label %for.body, label %for.end

for.body:                                         ; preds = %for.cond
  %m_allocated_sizes11 = getelementptr inbounds %class.btGenericMemoryPool, ptr %this1, i32 0, i32 2
  %8 = load ptr, ptr %m_allocated_sizes11, align 8
  %9 = load i64, ptr %i, align 8
  %arrayidx = getelementptr inbounds i64, ptr %8, i64 %9
  store i64 0, ptr %arrayidx, align 8
  br label %for.inc

for.inc:                                          ; preds = %for.body
  %10 = load i64, ptr %i, align 8
  %inc = add i64 %10, 1
  store i64 %inc, ptr %i, align 8
  br label %for.cond, !llvm.loop !7

for.end:                                          ; preds = %for.cond
  ret void
}