; Function Attrs: mustprogress uwtable
define dso_local void @_ZN19btGenericMemoryPool9init_poolEmm(ptr nocapture noundef nonnull align 8 dereferenceable(56) %this, i64 noundef %element_size, i64 noundef %element_count) local_unnamed_addr #2 align 2 {
entry:
  %m_allocated_count = getelementptr inbounds i8, ptr %this, i64 24
  %m_element_size = getelementptr inbounds i8, ptr %this, i64 40
  tail call void @llvm.memset.p0.i64(ptr noundef nonnull align 8 dereferenceable(16) %m_allocated_count, i8 0, i64 16, i1 false)
  store i64 %element_size, ptr %m_element_size, align 8
  %m_max_element_count = getelementptr inbounds i8, ptr %this, i64 48
  store i64 %element_count, ptr %m_max_element_count, align 8
  %mul = mul i64 %element_count, %element_size
  %call = tail call noundef ptr @_Z22btAlignedAllocInternalmi(i64 noundef %mul, i32 noundef 16)
  store ptr %call, ptr %this, align 8
  %0 = load i64, ptr %m_max_element_count, align 8
  %mul5 = shl i64 %0, 3
  %call6 = tail call noundef ptr @_Z22btAlignedAllocInternalmi(i64 noundef %mul5, i32 noundef 16)
  %m_free_nodes = getelementptr inbounds i8, ptr %this, i64 8
  store ptr %call6, ptr %m_free_nodes, align 8
  %1 = load i64, ptr %m_max_element_count, align 8
  %mul8 = shl i64 %1, 3
  %call9 = tail call noundef ptr @_Z22btAlignedAllocInternalmi(i64 noundef %mul8, i32 noundef 16)
  %m_allocated_sizes = getelementptr inbounds i8, ptr %this, i64 16
  store ptr %call9, ptr %m_allocated_sizes, align 8
  %2 = load i64, ptr %m_max_element_count, align 8
  %cmp3.not = icmp eq i64 %2, 0
  br i1 %cmp3.not, label %for.end, label %for.body

for.body:                                         ; preds = %entry, %for.body
  %i.04 = phi i64 [ %inc, %for.body ], [ 0, %entry ]
  %3 = load ptr, ptr %m_allocated_sizes, align 8
  %arrayidx = getelementptr inbounds i64, ptr %3, i64 %i.04
  store i64 0, ptr %arrayidx, align 8
  %inc = add nuw i64 %i.04, 1
  %4 = load i64, ptr %m_max_element_count, align 8
  %cmp = icmp ult i64 %inc, %4
  br i1 %cmp, label %for.body, label %for.end, !llvm.loop !7

for.end:                                          ; preds = %for.body, %entry
  ret void
}